

Microchip MPLAB XC8 Assembler V2.40 build 20220703182018 
                                                                                               Fri Dec 16 16:23:09 2022

Microchip MPLAB XC8 C Compiler v2.40 (Free license) build 20220703182018 Og1 
     1                           	processor	16F15214
     2                           	pagewidth 120
     3                           	opt	flic
     4                           	psect	nvCOMMON,global,class=COMMON,space=1,delta=1,noexec
     5                           	psect	cinit,global,class=CODE,merge=1,delta=2
     6                           	psect	cstackCOMMON,global,class=COMMON,space=1,delta=1,noexec
     7                           	psect	maintext,global,class=CODE,merge=1,split=1,delta=2
     8                           	psect	text1,local,class=CODE,merge=1,delta=2
     9                           	psect	text2,local,class=CODE,merge=1,delta=2
    10                           	psect	text3,local,class=CODE,merge=1,delta=2
    11                           	psect	text4,local,class=CODE,merge=1,delta=2
    12                           	psect	text5,local,class=CODE,merge=1,delta=2
    13                           	psect	text6,local,class=CODE,merge=1,delta=2
    14                           	psect	text7,local,class=CODE,merge=1,delta=2
    15                           	psect	intentry,global,class=CODE,delta=2
    16                           	psect	text9,local,class=CODE,merge=1,delta=2
    17                           	psect	text10,local,class=CODE,merge=1,delta=2
    18                           	psect	text11,local,class=CODE,merge=1,delta=2
    19                           	psect	idloc,global,abs,ovrld,class=IDLOC,space=5,delta=2,noexec
    20                           	psect	config,global,abs,ovrld,class=CONFIG,space=4,delta=2,noexec
    21                           	dabs	1,0x7E,2
    22     0000                     
    23                           ; Generated 19/07/2022 GMT
    24                           ; 
    25                           ; Copyright © 2022, Microchip Technology Inc. and its subsidiaries ("Microchip")
    26                           ; All rights reserved.
    27                           ; 
    28                           ; This software is developed by Microchip Technology Inc. and its subsidiaries ("Microch
      +                          ip").
    29                           ; 
    30                           ; Redistribution and use in source and binary forms, with or without modification, are
    31                           ; permitted provided that the following conditions are met:
    32                           ; 
    33                           ;     1. Redistributions of source code must retain the above copyright notice, this lis
      +                          t of
    34                           ;        conditions and the following disclaimer.
    35                           ; 
    36                           ;     2. Redistributions in binary form must reproduce the above copyright notice, this 
      +                          list
    37                           ;        of conditions and the following disclaimer in the documentation and/or other
    38                           ;        materials provided with the distribution. Publication is not required when
    39                           ;        this file is used in an embedded application.
    40                           ; 
    41                           ;     3. Microchip's name may not be used to endorse or promote products derived from th
      +                          is
    42                           ;        software without specific prior written permission.
    43                           ; 
    44                           ; THIS SOFTWARE IS PROVIDED BY MICROCHIP "AS IS" AND ANY EXPRESS OR IMPLIED WARRANTIES,
    45                           ; INCLUDING, BUT NOT LIMITED TO, THE IMPLIED WARRANTIES OF MERCHANTABILITY AND FITNESS F
      +                          OR
    46                           ; PURPOSE ARE DISCLAIMED.  IN NO EVENT SHALL MICROCHIP BE LIABLE FOR ANY DIRECT, INDIREC
      +                          T,
    47                           ; INCIDENTAL, SPECIAL, EXEMPLARY, OR CONSEQUENTIAL DAMAGES (INCLUDING BUT NOT LIMITED TO
    48                           ; PROCUREMENT OF SUBSTITUTE GOODS OR SERVICES; LOSS OF USE, DATA OR PROFITS; OR BUSINESS
    49                           ; INTERRUPTION) HOWSOEVER CAUSED AND ON ANY THEORY OF LIABILITY, WHETHER IN CONTRACT, ST
      +                          RICT
    50                           ; LIABILITY, OR TORT (INCLUDING NEGLIGENCE OR OTHERWISE) ARISING IN ANY WAY OUT OF THE U
      +                          SE OF
    51                           ; THIS SOFTWARE, EVEN IF ADVISED OF THE POSSIBILITY OF SUCH DAMAGE.
    52                           ; 
    53                           ; 
    54                           ; Code-generator required, PIC16F15214 Definitions
    55                           ; 
    56                           ; SFR Addresses
    57     0000                     	;# 
    58     0001                     	;# 
    59     0002                     	;# 
    60     0003                     	;# 
    61     0004                     	;# 
    62     0005                     	;# 
    63     0006                     	;# 
    64     0007                     	;# 
    65     0008                     	;# 
    66     0009                     	;# 
    67     000A                     	;# 
    68     000B                     	;# 
    69     000C                     	;# 
    70     0012                     	;# 
    71     0018                     	;# 
    72     009A                     	;# 
    73     009B                     	;# 
    74     009B                     	;# 
    75     009C                     	;# 
    76     009D                     	;# 
    77     009E                     	;# 
    78     009F                     	;# 
    79     0119                     	;# 
    80     011A                     	;# 
    81     011B                     	;# 
    82     011B                     	;# 
    83     011C                     	;# 
    84     011D                     	;# 
    85     011E                     	;# 
    86     011F                     	;# 
    87     018C                     	;# 
    88     018D                     	;# 
    89     018E                     	;# 
    90     018F                     	;# 
    91     0190                     	;# 
    92     0191                     	;# 
    93     0192                     	;# 
    94     020C                     	;# 
    95     020D                     	;# 
    96     020E                     	;# 
    97     020E                     	;# 
    98     020F                     	;# 
    99     020F                     	;# 
   100     0210                     	;# 
   101     0210                     	;# 
   102     0211                     	;# 
   103     0211                     	;# 
   104     028C                     	;# 
   105     028C                     	;# 
   106     028D                     	;# 
   107     028D                     	;# 
   108     028E                     	;# 
   109     028F                     	;# 
   110     0290                     	;# 
   111     0291                     	;# 
   112     030C                     	;# 
   113     030C                     	;# 
   114     030D                     	;# 
   115     030E                     	;# 
   116     030F                     	;# 
   117     0310                     	;# 
   118     0310                     	;# 
   119     0311                     	;# 
   120     0312                     	;# 
   121     0313                     	;# 
   122     0314                     	;# 
   123     0314                     	;# 
   124     0315                     	;# 
   125     0316                     	;# 
   126     0318                     	;# 
   127     0318                     	;# 
   128     0319                     	;# 
   129     031A                     	;# 
   130     059C                     	;# 
   131     059C                     	;# 
   132     059D                     	;# 
   133     059D                     	;# 
   134     059E                     	;# 
   135     059F                     	;# 
   136     070C                     	;# 
   137     070D                     	;# 
   138     070E                     	;# 
   139     0716                     	;# 
   140     0717                     	;# 
   141     0718                     	;# 
   142     080C                     	;# 
   143     0811                     	;# 
   144     0813                     	;# 
   145     0814                     	;# 
   146     081A                     	;# 
   147     081A                     	;# 
   148     081B                     	;# 
   149     081C                     	;# 
   150     081C                     	;# 
   151     081D                     	;# 
   152     081E                     	;# 
   153     081F                     	;# 
   154     088E                     	;# 
   155     0890                     	;# 
   156     0891                     	;# 
   157     0892                     	;# 
   158     0893                     	;# 
   159     090C                     	;# 
   160     1E8F                     	;# 
   161     1E90                     	;# 
   162     1E91                     	;# 
   163     1E92                     	;# 
   164     1E93                     	;# 
   165     1E9C                     	;# 
   166     1EA1                     	;# 
   167     1EA2                     	;# 
   168     1EC3                     	;# 
   169     1EC5                     	;# 
   170     1EC6                     	;# 
   171     1EC7                     	;# 
   172     1ECB                     	;# 
   173     1ECB                     	;# 
   174     1ECB                     	;# 
   175     1ECC                     	;# 
   176     1ECC                     	;# 
   177     1ECC                     	;# 
   178     1F10                     	;# 
   179     1F11                     	;# 
   180     1F12                     	;# 
   181     1F14                     	;# 
   182     1F15                     	;# 
   183     1F38                     	;# 
   184     1F39                     	;# 
   185     1F3A                     	;# 
   186     1F3B                     	;# 
   187     1F3C                     	;# 
   188     1F3D                     	;# 
   189     1F3E                     	;# 
   190     1F3F                     	;# 
   191     1FE4                     	;# 
   192     1FE5                     	;# 
   193     1FE6                     	;# 
   194     1FE7                     	;# 
   195     1FE8                     	;# 
   196     1FE8                     	;# 
   197     1FE9                     	;# 
   198     1FEA                     	;# 
   199     1FEB                     	;# 
   200     1FED                     	;# 
   201     1FEE                     	;# 
   202     1FEF                     	;# 
   203     0000                     	;# 
   204     0001                     	;# 
   205     0002                     	;# 
   206     0003                     	;# 
   207     0004                     	;# 
   208     0005                     	;# 
   209     0006                     	;# 
   210     0007                     	;# 
   211     0008                     	;# 
   212     0009                     	;# 
   213     000A                     	;# 
   214     000B                     	;# 
   215     000C                     	;# 
   216     0012                     	;# 
   217     0018                     	;# 
   218     009A                     	;# 
   219     009B                     	;# 
   220     009B                     	;# 
   221     009C                     	;# 
   222     009D                     	;# 
   223     009E                     	;# 
   224     009F                     	;# 
   225     0119                     	;# 
   226     011A                     	;# 
   227     011B                     	;# 
   228     011B                     	;# 
   229     011C                     	;# 
   230     011D                     	;# 
   231     011E                     	;# 
   232     011F                     	;# 
   233     018C                     	;# 
   234     018D                     	;# 
   235     018E                     	;# 
   236     018F                     	;# 
   237     0190                     	;# 
   238     0191                     	;# 
   239     0192                     	;# 
   240     020C                     	;# 
   241     020D                     	;# 
   242     020E                     	;# 
   243     020E                     	;# 
   244     020F                     	;# 
   245     020F                     	;# 
   246     0210                     	;# 
   247     0210                     	;# 
   248     0211                     	;# 
   249     0211                     	;# 
   250     028C                     	;# 
   251     028C                     	;# 
   252     028D                     	;# 
   253     028D                     	;# 
   254     028E                     	;# 
   255     028F                     	;# 
   256     0290                     	;# 
   257     0291                     	;# 
   258     030C                     	;# 
   259     030C                     	;# 
   260     030D                     	;# 
   261     030E                     	;# 
   262     030F                     	;# 
   263     0310                     	;# 
   264     0310                     	;# 
   265     0311                     	;# 
   266     0312                     	;# 
   267     0313                     	;# 
   268     0314                     	;# 
   269     0314                     	;# 
   270     0315                     	;# 
   271     0316                     	;# 
   272     0318                     	;# 
   273     0318                     	;# 
   274     0319                     	;# 
   275     031A                     	;# 
   276     059C                     	;# 
   277     059C                     	;# 
   278     059D                     	;# 
   279     059D                     	;# 
   280     059E                     	;# 
   281     059F                     	;# 
   282     070C                     	;# 
   283     070D                     	;# 
   284     070E                     	;# 
   285     0716                     	;# 
   286     0717                     	;# 
   287     0718                     	;# 
   288     080C                     	;# 
   289     0811                     	;# 
   290     0813                     	;# 
   291     0814                     	;# 
   292     081A                     	;# 
   293     081A                     	;# 
   294     081B                     	;# 
   295     081C                     	;# 
   296     081C                     	;# 
   297     081D                     	;# 
   298     081E                     	;# 
   299     081F                     	;# 
   300     088E                     	;# 
   301     0890                     	;# 
   302     0891                     	;# 
   303     0892                     	;# 
   304     0893                     	;# 
   305     090C                     	;# 
   306     1E8F                     	;# 
   307     1E90                     	;# 
   308     1E91                     	;# 
   309     1E92                     	;# 
   310     1E93                     	;# 
   311     1E9C                     	;# 
   312     1EA1                     	;# 
   313     1EA2                     	;# 
   314     1EC3                     	;# 
   315     1EC5                     	;# 
   316     1EC6                     	;# 
   317     1EC7                     	;# 
   318     1ECB                     	;# 
   319     1ECB                     	;# 
   320     1ECB                     	;# 
   321     1ECC                     	;# 
   322     1ECC                     	;# 
   323     1ECC                     	;# 
   324     1F10                     	;# 
   325     1F11                     	;# 
   326     1F12                     	;# 
   327     1F14                     	;# 
   328     1F15                     	;# 
   329     1F38                     	;# 
   330     1F39                     	;# 
   331     1F3A                     	;# 
   332     1F3B                     	;# 
   333     1F3C                     	;# 
   334     1F3D                     	;# 
   335     1F3E                     	;# 
   336     1F3F                     	;# 
   337     1FE4                     	;# 
   338     1FE5                     	;# 
   339     1FE6                     	;# 
   340     1FE7                     	;# 
   341     1FE8                     	;# 
   342     1FE8                     	;# 
   343     1FE9                     	;# 
   344     1FEA                     	;# 
   345     1FEB                     	;# 
   346     1FED                     	;# 
   347     1FEE                     	;# 
   348     1FEF                     	;# 
   349     0000                     	;# 
   350     0001                     	;# 
   351     0002                     	;# 
   352     0003                     	;# 
   353     0004                     	;# 
   354     0005                     	;# 
   355     0006                     	;# 
   356     0007                     	;# 
   357     0008                     	;# 
   358     0009                     	;# 
   359     000A                     	;# 
   360     000B                     	;# 
   361     000C                     	;# 
   362     0012                     	;# 
   363     0018                     	;# 
   364     009A                     	;# 
   365     009B                     	;# 
   366     009B                     	;# 
   367     009C                     	;# 
   368     009D                     	;# 
   369     009E                     	;# 
   370     009F                     	;# 
   371     0119                     	;# 
   372     011A                     	;# 
   373     011B                     	;# 
   374     011B                     	;# 
   375     011C                     	;# 
   376     011D                     	;# 
   377     011E                     	;# 
   378     011F                     	;# 
   379     018C                     	;# 
   380     018D                     	;# 
   381     018E                     	;# 
   382     018F                     	;# 
   383     0190                     	;# 
   384     0191                     	;# 
   385     0192                     	;# 
   386     020C                     	;# 
   387     020D                     	;# 
   388     020E                     	;# 
   389     020E                     	;# 
   390     020F                     	;# 
   391     020F                     	;# 
   392     0210                     	;# 
   393     0210                     	;# 
   394     0211                     	;# 
   395     0211                     	;# 
   396     028C                     	;# 
   397     028C                     	;# 
   398     028D                     	;# 
   399     028D                     	;# 
   400     028E                     	;# 
   401     028F                     	;# 
   402     0290                     	;# 
   403     0291                     	;# 
   404     030C                     	;# 
   405     030C                     	;# 
   406     030D                     	;# 
   407     030E                     	;# 
   408     030F                     	;# 
   409     0310                     	;# 
   410     0310                     	;# 
   411     0311                     	;# 
   412     0312                     	;# 
   413     0313                     	;# 
   414     0314                     	;# 
   415     0314                     	;# 
   416     0315                     	;# 
   417     0316                     	;# 
   418     0318                     	;# 
   419     0318                     	;# 
   420     0319                     	;# 
   421     031A                     	;# 
   422     059C                     	;# 
   423     059C                     	;# 
   424     059D                     	;# 
   425     059D                     	;# 
   426     059E                     	;# 
   427     059F                     	;# 
   428     070C                     	;# 
   429     070D                     	;# 
   430     070E                     	;# 
   431     0716                     	;# 
   432     0717                     	;# 
   433     0718                     	;# 
   434     080C                     	;# 
   435     0811                     	;# 
   436     0813                     	;# 
   437     0814                     	;# 
   438     081A                     	;# 
   439     081A                     	;# 
   440     081B                     	;# 
   441     081C                     	;# 
   442     081C                     	;# 
   443     081D                     	;# 
   444     081E                     	;# 
   445     081F                     	;# 
   446     088E                     	;# 
   447     0890                     	;# 
   448     0891                     	;# 
   449     0892                     	;# 
   450     0893                     	;# 
   451     090C                     	;# 
   452     1E8F                     	;# 
   453     1E90                     	;# 
   454     1E91                     	;# 
   455     1E92                     	;# 
   456     1E93                     	;# 
   457     1E9C                     	;# 
   458     1EA1                     	;# 
   459     1EA2                     	;# 
   460     1EC3                     	;# 
   461     1EC5                     	;# 
   462     1EC6                     	;# 
   463     1EC7                     	;# 
   464     1ECB                     	;# 
   465     1ECB                     	;# 
   466     1ECB                     	;# 
   467     1ECC                     	;# 
   468     1ECC                     	;# 
   469     1ECC                     	;# 
   470     1F10                     	;# 
   471     1F11                     	;# 
   472     1F12                     	;# 
   473     1F14                     	;# 
   474     1F15                     	;# 
   475     1F38                     	;# 
   476     1F39                     	;# 
   477     1F3A                     	;# 
   478     1F3B                     	;# 
   479     1F3C                     	;# 
   480     1F3D                     	;# 
   481     1F3E                     	;# 
   482     1F3F                     	;# 
   483     1FE4                     	;# 
   484     1FE5                     	;# 
   485     1FE6                     	;# 
   486     1FE7                     	;# 
   487     1FE8                     	;# 
   488     1FE8                     	;# 
   489     1FE9                     	;# 
   490     1FEA                     	;# 
   491     1FEB                     	;# 
   492     1FED                     	;# 
   493     1FEE                     	;# 
   494     1FEF                     	;# 
   495     0000                     	;# 
   496     0001                     	;# 
   497     0002                     	;# 
   498     0003                     	;# 
   499     0004                     	;# 
   500     0005                     	;# 
   501     0006                     	;# 
   502     0007                     	;# 
   503     0008                     	;# 
   504     0009                     	;# 
   505     000A                     	;# 
   506     000B                     	;# 
   507     000C                     	;# 
   508     0012                     	;# 
   509     0018                     	;# 
   510     009A                     	;# 
   511     009B                     	;# 
   512     009B                     	;# 
   513     009C                     	;# 
   514     009D                     	;# 
   515     009E                     	;# 
   516     009F                     	;# 
   517     0119                     	;# 
   518     011A                     	;# 
   519     011B                     	;# 
   520     011B                     	;# 
   521     011C                     	;# 
   522     011D                     	;# 
   523     011E                     	;# 
   524     011F                     	;# 
   525     018C                     	;# 
   526     018D                     	;# 
   527     018E                     	;# 
   528     018F                     	;# 
   529     0190                     	;# 
   530     0191                     	;# 
   531     0192                     	;# 
   532     020C                     	;# 
   533     020D                     	;# 
   534     020E                     	;# 
   535     020E                     	;# 
   536     020F                     	;# 
   537     020F                     	;# 
   538     0210                     	;# 
   539     0210                     	;# 
   540     0211                     	;# 
   541     0211                     	;# 
   542     028C                     	;# 
   543     028C                     	;# 
   544     028D                     	;# 
   545     028D                     	;# 
   546     028E                     	;# 
   547     028F                     	;# 
   548     0290                     	;# 
   549     0291                     	;# 
   550     030C                     	;# 
   551     030C                     	;# 
   552     030D                     	;# 
   553     030E                     	;# 
   554     030F                     	;# 
   555     0310                     	;# 
   556     0310                     	;# 
   557     0311                     	;# 
   558     0312                     	;# 
   559     0313                     	;# 
   560     0314                     	;# 
   561     0314                     	;# 
   562     0315                     	;# 
   563     0316                     	;# 
   564     0318                     	;# 
   565     0318                     	;# 
   566     0319                     	;# 
   567     031A                     	;# 
   568     059C                     	;# 
   569     059C                     	;# 
   570     059D                     	;# 
   571     059D                     	;# 
   572     059E                     	;# 
   573     059F                     	;# 
   574     070C                     	;# 
   575     070D                     	;# 
   576     070E                     	;# 
   577     0716                     	;# 
   578     0717                     	;# 
   579     0718                     	;# 
   580     080C                     	;# 
   581     0811                     	;# 
   582     0813                     	;# 
   583     0814                     	;# 
   584     081A                     	;# 
   585     081A                     	;# 
   586     081B                     	;# 
   587     081C                     	;# 
   588     081C                     	;# 
   589     081D                     	;# 
   590     081E                     	;# 
   591     081F                     	;# 
   592     088E                     	;# 
   593     0890                     	;# 
   594     0891                     	;# 
   595     0892                     	;# 
   596     0893                     	;# 
   597     090C                     	;# 
   598     1E8F                     	;# 
   599     1E90                     	;# 
   600     1E91                     	;# 
   601     1E92                     	;# 
   602     1E93                     	;# 
   603     1E9C                     	;# 
   604     1EA1                     	;# 
   605     1EA2                     	;# 
   606     1EC3                     	;# 
   607     1EC5                     	;# 
   608     1EC6                     	;# 
   609     1EC7                     	;# 
   610     1ECB                     	;# 
   611     1ECB                     	;# 
   612     1ECB                     	;# 
   613     1ECC                     	;# 
   614     1ECC                     	;# 
   615     1ECC                     	;# 
   616     1F10                     	;# 
   617     1F11                     	;# 
   618     1F12                     	;# 
   619     1F14                     	;# 
   620     1F15                     	;# 
   621     1F38                     	;# 
   622     1F39                     	;# 
   623     1F3A                     	;# 
   624     1F3B                     	;# 
   625     1F3C                     	;# 
   626     1F3D                     	;# 
   627     1F3E                     	;# 
   628     1F3F                     	;# 
   629     1FE4                     	;# 
   630     1FE5                     	;# 
   631     1FE6                     	;# 
   632     1FE7                     	;# 
   633     1FE8                     	;# 
   634     1FE8                     	;# 
   635     1FE9                     	;# 
   636     1FEA                     	;# 
   637     1FEB                     	;# 
   638     1FED                     	;# 
   639     1FEE                     	;# 
   640     1FEF                     	;# 
   641     0000                     	;# 
   642     0001                     	;# 
   643     0002                     	;# 
   644     0003                     	;# 
   645     0004                     	;# 
   646     0005                     	;# 
   647     0006                     	;# 
   648     0007                     	;# 
   649     0008                     	;# 
   650     0009                     	;# 
   651     000A                     	;# 
   652     000B                     	;# 
   653     000C                     	;# 
   654     0012                     	;# 
   655     0018                     	;# 
   656     009A                     	;# 
   657     009B                     	;# 
   658     009B                     	;# 
   659     009C                     	;# 
   660     009D                     	;# 
   661     009E                     	;# 
   662     009F                     	;# 
   663     0119                     	;# 
   664     011A                     	;# 
   665     011B                     	;# 
   666     011B                     	;# 
   667     011C                     	;# 
   668     011D                     	;# 
   669     011E                     	;# 
   670     011F                     	;# 
   671     018C                     	;# 
   672     018D                     	;# 
   673     018E                     	;# 
   674     018F                     	;# 
   675     0190                     	;# 
   676     0191                     	;# 
   677     0192                     	;# 
   678     020C                     	;# 
   679     020D                     	;# 
   680     020E                     	;# 
   681     020E                     	;# 
   682     020F                     	;# 
   683     020F                     	;# 
   684     0210                     	;# 
   685     0210                     	;# 
   686     0211                     	;# 
   687     0211                     	;# 
   688     028C                     	;# 
   689     028C                     	;# 
   690     028D                     	;# 
   691     028D                     	;# 
   692     028E                     	;# 
   693     028F                     	;# 
   694     0290                     	;# 
   695     0291                     	;# 
   696     030C                     	;# 
   697     030C                     	;# 
   698     030D                     	;# 
   699     030E                     	;# 
   700     030F                     	;# 
   701     0310                     	;# 
   702     0310                     	;# 
   703     0311                     	;# 
   704     0312                     	;# 
   705     0313                     	;# 
   706     0314                     	;# 
   707     0314                     	;# 
   708     0315                     	;# 
   709     0316                     	;# 
   710     0318                     	;# 
   711     0318                     	;# 
   712     0319                     	;# 
   713     031A                     	;# 
   714     059C                     	;# 
   715     059C                     	;# 
   716     059D                     	;# 
   717     059D                     	;# 
   718     059E                     	;# 
   719     059F                     	;# 
   720     070C                     	;# 
   721     070D                     	;# 
   722     070E                     	;# 
   723     0716                     	;# 
   724     0717                     	;# 
   725     0718                     	;# 
   726     080C                     	;# 
   727     0811                     	;# 
   728     0813                     	;# 
   729     0814                     	;# 
   730     081A                     	;# 
   731     081A                     	;# 
   732     081B                     	;# 
   733     081C                     	;# 
   734     081C                     	;# 
   735     081D                     	;# 
   736     081E                     	;# 
   737     081F                     	;# 
   738     088E                     	;# 
   739     0890                     	;# 
   740     0891                     	;# 
   741     0892                     	;# 
   742     0893                     	;# 
   743     090C                     	;# 
   744     1E8F                     	;# 
   745     1E90                     	;# 
   746     1E91                     	;# 
   747     1E92                     	;# 
   748     1E93                     	;# 
   749     1E9C                     	;# 
   750     1EA1                     	;# 
   751     1EA2                     	;# 
   752     1EC3                     	;# 
   753     1EC5                     	;# 
   754     1EC6                     	;# 
   755     1EC7                     	;# 
   756     1ECB                     	;# 
   757     1ECB                     	;# 
   758     1ECB                     	;# 
   759     1ECC                     	;# 
   760     1ECC                     	;# 
   761     1ECC                     	;# 
   762     1F10                     	;# 
   763     1F11                     	;# 
   764     1F12                     	;# 
   765     1F14                     	;# 
   766     1F15                     	;# 
   767     1F38                     	;# 
   768     1F39                     	;# 
   769     1F3A                     	;# 
   770     1F3B                     	;# 
   771     1F3C                     	;# 
   772     1F3D                     	;# 
   773     1F3E                     	;# 
   774     1F3F                     	;# 
   775     1FE4                     	;# 
   776     1FE5                     	;# 
   777     1FE6                     	;# 
   778     1FE7                     	;# 
   779     1FE8                     	;# 
   780     1FE8                     	;# 
   781     1FE9                     	;# 
   782     1FEA                     	;# 
   783     1FEB                     	;# 
   784     1FED                     	;# 
   785     1FEE                     	;# 
   786     1FEF                     	;# 
   787     0000                     	;# 
   788     0001                     	;# 
   789     0002                     	;# 
   790     0003                     	;# 
   791     0004                     	;# 
   792     0005                     	;# 
   793     0006                     	;# 
   794     0007                     	;# 
   795     0008                     	;# 
   796     0009                     	;# 
   797     000A                     	;# 
   798     000B                     	;# 
   799     000C                     	;# 
   800     0012                     	;# 
   801     0018                     	;# 
   802     009A                     	;# 
   803     009B                     	;# 
   804     009B                     	;# 
   805     009C                     	;# 
   806     009D                     	;# 
   807     009E                     	;# 
   808     009F                     	;# 
   809     0119                     	;# 
   810     011A                     	;# 
   811     011B                     	;# 
   812     011B                     	;# 
   813     011C                     	;# 
   814     011D                     	;# 
   815     011E                     	;# 
   816     011F                     	;# 
   817     018C                     	;# 
   818     018D                     	;# 
   819     018E                     	;# 
   820     018F                     	;# 
   821     0190                     	;# 
   822     0191                     	;# 
   823     0192                     	;# 
   824     020C                     	;# 
   825     020D                     	;# 
   826     020E                     	;# 
   827     020E                     	;# 
   828     020F                     	;# 
   829     020F                     	;# 
   830     0210                     	;# 
   831     0210                     	;# 
   832     0211                     	;# 
   833     0211                     	;# 
   834     028C                     	;# 
   835     028C                     	;# 
   836     028D                     	;# 
   837     028D                     	;# 
   838     028E                     	;# 
   839     028F                     	;# 
   840     0290                     	;# 
   841     0291                     	;# 
   842     030C                     	;# 
   843     030C                     	;# 
   844     030D                     	;# 
   845     030E                     	;# 
   846     030F                     	;# 
   847     0310                     	;# 
   848     0310                     	;# 
   849     0311                     	;# 
   850     0312                     	;# 
   851     0313                     	;# 
   852     0314                     	;# 
   853     0314                     	;# 
   854     0315                     	;# 
   855     0316                     	;# 
   856     0318                     	;# 
   857     0318                     	;# 
   858     0319                     	;# 
   859     031A                     	;# 
   860     059C                     	;# 
   861     059C                     	;# 
   862     059D                     	;# 
   863     059D                     	;# 
   864     059E                     	;# 
   865     059F                     	;# 
   866     070C                     	;# 
   867     070D                     	;# 
   868     070E                     	;# 
   869     0716                     	;# 
   870     0717                     	;# 
   871     0718                     	;# 
   872     080C                     	;# 
   873     0811                     	;# 
   874     0813                     	;# 
   875     0814                     	;# 
   876     081A                     	;# 
   877     081A                     	;# 
   878     081B                     	;# 
   879     081C                     	;# 
   880     081C                     	;# 
   881     081D                     	;# 
   882     081E                     	;# 
   883     081F                     	;# 
   884     088E                     	;# 
   885     0890                     	;# 
   886     0891                     	;# 
   887     0892                     	;# 
   888     0893                     	;# 
   889     090C                     	;# 
   890     1E8F                     	;# 
   891     1E90                     	;# 
   892     1E91                     	;# 
   893     1E92                     	;# 
   894     1E93                     	;# 
   895     1E9C                     	;# 
   896     1EA1                     	;# 
   897     1EA2                     	;# 
   898     1EC3                     	;# 
   899     1EC5                     	;# 
   900     1EC6                     	;# 
   901     1EC7                     	;# 
   902     1ECB                     	;# 
   903     1ECB                     	;# 
   904     1ECB                     	;# 
   905     1ECC                     	;# 
   906     1ECC                     	;# 
   907     1ECC                     	;# 
   908     1F10                     	;# 
   909     1F11                     	;# 
   910     1F12                     	;# 
   911     1F14                     	;# 
   912     1F15                     	;# 
   913     1F38                     	;# 
   914     1F39                     	;# 
   915     1F3A                     	;# 
   916     1F3B                     	;# 
   917     1F3C                     	;# 
   918     1F3D                     	;# 
   919     1F3E                     	;# 
   920     1F3F                     	;# 
   921     1FE4                     	;# 
   922     1FE5                     	;# 
   923     1FE6                     	;# 
   924     1FE7                     	;# 
   925     1FE8                     	;# 
   926     1FE8                     	;# 
   927     1FE9                     	;# 
   928     1FEA                     	;# 
   929     1FEB                     	;# 
   930     1FED                     	;# 
   931     1FEE                     	;# 
   932     1FEF                     	;# 
   933                           
   934                           	psect	nvCOMMON
   935     0070                     __pnvCOMMON:
   936     0070                     _TMR2_InterruptHandler:
   937     0070                     	ds	2
   938     0012                     _TRISA	set	18
   939     0018                     _LATA	set	24
   940     000B                     _INTCONbits	set	11
   941     028D                     _PR2	set	653
   942     028C                     _TMR2	set	652
   943     028E                     _T2CONbits	set	654
   944     0291                     _T2RSTbits	set	657
   945     028F                     _T2HLTbits	set	655
   946     028E                     _T2CON	set	654
   947     028C                     _T2TMR	set	652
   948     028D                     _T2PR	set	653
   949     0291                     _T2RST	set	657
   950     028F                     _T2HLT	set	655
   951     0290                     _T2CLKCON	set	656
   952     0314                     _PWM3DCL	set	788
   953     0315                     _PWM3DCH	set	789
   954     0316                     _PWM3CON	set	790
   955     070D                     _PIR1bits	set	1805
   956     0717                     _PIE1bits	set	1815
   957     070C                     _PIR0bits	set	1804
   958     0716                     _PIE0bits	set	1814
   959     080C                     _WDTCON	set	2060
   960     0892                     _OSCTUNE	set	2194
   961     0893                     _OSCFRQ	set	2195
   962     0891                     _OSCEN	set	2193
   963     1F14                     _RA4PPS	set	7956
   964     1F3C                     _INLVLA	set	7996
   965     1F3B                     _SLRCONA	set	7995
   966     1F3A                     _ODCONA	set	7994
   967     1F39                     _WPUA	set	7993
   968     1F38                     _ANSELA	set	7992
   969                           
   970                           	psect	cinit
   971     0027                     start_initialization:	
   972                           ; #config settings
   973                           
   974     0027                     __initialization:
   975     0027                     end_of_initialization:	
   976                           ;End of C runtime variable initialization code
   977                           
   978     0027                     __end_of__initialization:
   979     0027  107E               	bcf	int$flags,0	;clear compiler interrupt flag (level 1)
   980     0028  0140               	movlb	0
   981     0029  3180  2872         	ljmp	_main	;jump to C main() function
   982                           
   983                           	psect	cstackCOMMON
   984     0072                     __pcstackCOMMON:
   985     0072                     ?_SYSTEM_Initialize:
   986     0072                     ?_PWM3_Initialize:	
   987                           ; 1 bytes @ 0x0
   988                           
   989     0072                     ??_PWM3_Initialize:	
   990                           ; 1 bytes @ 0x0
   991                           
   992     0072                     ?_PIN_MANAGER_IOC:	
   993                           ; 1 bytes @ 0x0
   994                           
   995     0072                     ??_PIN_MANAGER_IOC:	
   996                           ; 1 bytes @ 0x0
   997                           
   998     0072                     ?_TMR2_ISR:	
   999                           ; 1 bytes @ 0x0
  1000                           
  1001     0072                     ??_TMR2_ISR:	
  1002                           ; 1 bytes @ 0x0
  1003                           
  1004     0072                     ?_TMR2_SetInterruptHandler:	
  1005                           ; 1 bytes @ 0x0
  1006                           
  1007     0072                     ?_TMR2_DefaultInterruptHandler:	
  1008                           ; 1 bytes @ 0x0
  1009                           
  1010     0072                     ??_TMR2_DefaultInterruptHandler:	
  1011                           ; 1 bytes @ 0x0
  1012                           
  1013     0072                     ?_OSCILLATOR_Initialize:	
  1014                           ; 1 bytes @ 0x0
  1015                           
  1016     0072                     ??_OSCILLATOR_Initialize:	
  1017                           ; 1 bytes @ 0x0
  1018                           
  1019     0072                     ?_WDT_Initialize:	
  1020                           ; 1 bytes @ 0x0
  1021                           
  1022     0072                     ??_WDT_Initialize:	
  1023                           ; 1 bytes @ 0x0
  1024                           
  1025     0072                     ?_main:	
  1026                           ; 1 bytes @ 0x0
  1027                           
  1028     0072                     ?_INTERRUPT_InterruptManager:	
  1029                           ; 1 bytes @ 0x0
  1030                           
  1031     0072                     ??_INTERRUPT_InterruptManager:	
  1032                           ; 1 bytes @ 0x0
  1033                           
  1034     0072                     ?_PIN_MANAGER_Initialize:	
  1035                           ; 1 bytes @ 0x0
  1036                           
  1037     0072                     ??_PIN_MANAGER_Initialize:	
  1038                           ; 1 bytes @ 0x0
  1039                           
  1040     0072                     ?_TMR2_Initialize:	
  1041                           ; 1 bytes @ 0x0
  1042                           
  1043     0072                     TMR2_SetInterruptHandler@InterruptHandler:	
  1044                           ; 1 bytes @ 0x0
  1045                           
  1046                           
  1047                           ; 2 bytes @ 0x0
  1048     0072                     	ds	2
  1049     0074                     ??_SYSTEM_Initialize:
  1050     0074                     ??_TMR2_SetInterruptHandler:	
  1051                           ; 1 bytes @ 0x2
  1052                           
  1053     0074                     ??_main:	
  1054                           ; 1 bytes @ 0x2
  1055                           
  1056     0074                     ??_TMR2_Initialize:	
  1057                           ; 1 bytes @ 0x2
  1058                           
  1059                           
  1060                           	psect	maintext
  1061     0072                     __pmaintext:	
  1062                           ; 1 bytes @ 0x2
  1063 ;;
  1064 ;;Main: autosize = 0, tempsize = 0, incstack = 0, save=0
  1065 ;;
  1066 ;; *************** function _main *****************
  1067 ;; Defined at:
  1068 ;;		line 49 in file "main.c"
  1069 ;; Parameters:    Size  Location     Type
  1070 ;;		None
  1071 ;; Auto vars:     Size  Location     Type
  1072 ;;  dutycycle       2    0        unsigned short 
  1073 ;; Return value:  Size  Location     Type
  1074 ;;                  1    wreg      void 
  1075 ;; Registers used:
  1076 ;;		wreg, status,2, status,0, pclath, cstack
  1077 ;; Tracked objects:
  1078 ;;		On entry : B3F/0
  1079 ;;		On exit  : 0/0
  1080 ;;		Unchanged: 0/0
  1081 ;; Data sizes:     COMMON   BANK0   BANK1   BANK2   BANK3   BANK4   BANK5   BANK6
  1082 ;;      Params:         0       0       0       0       0       0       0       0
  1083 ;;      Locals:         0       0       0       0       0       0       0       0
  1084 ;;      Temps:          0       0       0       0       0       0       0       0
  1085 ;;      Totals:         0       0       0       0       0       0       0       0
  1086 ;;Total ram usage:        0 bytes
  1087 ;; Hardware stack levels required when called: 6
  1088 ;; This function calls:
  1089 ;;		_PWM3_Initialize
  1090 ;;		_SYSTEM_Initialize
  1091 ;; This function is called by:
  1092 ;;		Startup code after reset
  1093 ;; This function uses a non-reentrant model
  1094 ;;
  1095                           
  1096     0072                     _main:	
  1097                           ;psect for function _main
  1098                           
  1099     0072                     l833:	
  1100                           ;incstack = 0
  1101                           ; Regs used in _main: [wreg+status,2+status,0+pclath+cstack]
  1102                           
  1103                           
  1104                           ;main.c: 52:     SYSTEM_Initialize();
  1105     0072  3180  2054  3180   	fcall	_SYSTEM_Initialize
  1106                           
  1107                           ;main.c: 55: uint16_t dutycycle;;main.c: 57:      PWM3_Initialize();
  1108     0075  3180  207B  3180   	fcall	_PWM3_Initialize
  1109     0078                     l9:	
  1110                           ;main.c: 76:     while (1)
  1111                           
  1112     0078                     l10:	
  1113                           ;main.c: 77:     {;main.c: 83:     }
  1114                           
  1115     0078  2878               	goto	l9
  1116     0079  3180  2825         	ljmp	start
  1117     007B                     __end_of_main:
  1118                           
  1119                           	psect	text1
  1120     0054                     __ptext1:	
  1121 ;; *************** function _SYSTEM_Initialize *****************
  1122 ;; Defined at:
  1123 ;;		line 50 in file "mcc_generated_files/mcc.c"
  1124 ;; Parameters:    Size  Location     Type
  1125 ;;		None
  1126 ;; Auto vars:     Size  Location     Type
  1127 ;;		None
  1128 ;; Return value:  Size  Location     Type
  1129 ;;                  1    wreg      void 
  1130 ;; Registers used:
  1131 ;;		wreg, status,2, status,0, pclath, cstack
  1132 ;; Tracked objects:
  1133 ;;		On entry : 0/0
  1134 ;;		On exit  : 0/0
  1135 ;;		Unchanged: 0/0
  1136 ;; Data sizes:     COMMON   BANK0   BANK1   BANK2   BANK3   BANK4   BANK5   BANK6
  1137 ;;      Params:         0       0       0       0       0       0       0       0
  1138 ;;      Locals:         0       0       0       0       0       0       0       0
  1139 ;;      Temps:          0       0       0       0       0       0       0       0
  1140 ;;      Totals:         0       0       0       0       0       0       0       0
  1141 ;;Total ram usage:        0 bytes
  1142 ;; Hardware stack levels used: 1
  1143 ;; Hardware stack levels required when called: 5
  1144 ;; This function calls:
  1145 ;;		_OSCILLATOR_Initialize
  1146 ;;		_PIN_MANAGER_Initialize
  1147 ;;		_PWM3_Initialize
  1148 ;;		_TMR2_Initialize
  1149 ;;		_WDT_Initialize
  1150 ;; This function is called by:
  1151 ;;		_main
  1152 ;; This function uses a non-reentrant model
  1153 ;;
  1154                           
  1155     0054                     _SYSTEM_Initialize:	
  1156                           ;psect for function _SYSTEM_Initialize
  1157                           
  1158     0054                     l825:	
  1159                           ;incstack = 0
  1160                           ; Regs used in _SYSTEM_Initialize: [wreg+status,2+status,0+pclath+cstack]
  1161                           
  1162                           
  1163                           ;mcc_generated_files/mcc.c: 53:     PIN_MANAGER_Initialize();
  1164     0054  3180  2041  3180   	fcall	_PIN_MANAGER_Initialize
  1165                           
  1166                           ;mcc_generated_files/mcc.c: 54:     OSCILLATOR_Initialize();
  1167     0057  3180  2083  3180   	fcall	_OSCILLATOR_Initialize
  1168     005A                     l827:
  1169                           
  1170                           ;mcc_generated_files/mcc.c: 55:     WDT_Initialize();
  1171     005A  3180  208E  3180   	fcall	_WDT_Initialize
  1172     005D                     l829:
  1173                           
  1174                           ;mcc_generated_files/mcc.c: 56:     PWM3_Initialize();
  1175     005D  3180  207B  3180   	fcall	_PWM3_Initialize
  1176     0060                     l831:
  1177                           
  1178                           ;mcc_generated_files/mcc.c: 57:     TMR2_Initialize();
  1179     0060  3180  202B  3180   	fcall	_TMR2_Initialize
  1180     0063                     l175:
  1181     0063  0008               	return
  1182     0064                     __end_of_SYSTEM_Initialize:
  1183                           
  1184                           	psect	text2
  1185     008E                     __ptext2:	
  1186 ;; *************** function _WDT_Initialize *****************
  1187 ;; Defined at:
  1188 ;;		line 70 in file "mcc_generated_files/mcc.c"
  1189 ;; Parameters:    Size  Location     Type
  1190 ;;		None
  1191 ;; Auto vars:     Size  Location     Type
  1192 ;;		None
  1193 ;; Return value:  Size  Location     Type
  1194 ;;                  1    wreg      void 
  1195 ;; Registers used:
  1196 ;;		status,2
  1197 ;; Tracked objects:
  1198 ;;		On entry : 0/0
  1199 ;;		On exit  : 0/0
  1200 ;;		Unchanged: 0/0
  1201 ;; Data sizes:     COMMON   BANK0   BANK1   BANK2   BANK3   BANK4   BANK5   BANK6
  1202 ;;      Params:         0       0       0       0       0       0       0       0
  1203 ;;      Locals:         0       0       0       0       0       0       0       0
  1204 ;;      Temps:          0       0       0       0       0       0       0       0
  1205 ;;      Totals:         0       0       0       0       0       0       0       0
  1206 ;;Total ram usage:        0 bytes
  1207 ;; Hardware stack levels used: 1
  1208 ;; Hardware stack levels required when called: 3
  1209 ;; This function calls:
  1210 ;;		Nothing
  1211 ;; This function is called by:
  1212 ;;		_SYSTEM_Initialize
  1213 ;; This function uses a non-reentrant model
  1214 ;;
  1215                           
  1216     008E                     _WDT_Initialize:	
  1217                           ;psect for function _WDT_Initialize
  1218                           
  1219     008E                     l747:	
  1220                           ;incstack = 0
  1221                           ; Regs used in _WDT_Initialize: [status,2]
  1222                           
  1223                           
  1224                           ;mcc_generated_files/mcc.c: 73:     WDTCON = 0x00;
  1225     008E  0150               	movlb	16	; select bank16
  1226     008F  018C               	clrf	12	;volatile
  1227     0090                     l181:
  1228     0090  0008               	return
  1229     0091                     __end_of_WDT_Initialize:
  1230                           
  1231                           	psect	text3
  1232     002B                     __ptext3:	
  1233 ;; *************** function _TMR2_Initialize *****************
  1234 ;; Defined at:
  1235 ;;		line 64 in file "mcc_generated_files/tmr2.c"
  1236 ;; Parameters:    Size  Location     Type
  1237 ;;		None
  1238 ;; Auto vars:     Size  Location     Type
  1239 ;;		None
  1240 ;; Return value:  Size  Location     Type
  1241 ;;                  1    wreg      void 
  1242 ;; Registers used:
  1243 ;;		wreg, status,2, status,0, pclath, cstack
  1244 ;; Tracked objects:
  1245 ;;		On entry : 0/0
  1246 ;;		On exit  : 0/0
  1247 ;;		Unchanged: 0/0
  1248 ;; Data sizes:     COMMON   BANK0   BANK1   BANK2   BANK3   BANK4   BANK5   BANK6
  1249 ;;      Params:         0       0       0       0       0       0       0       0
  1250 ;;      Locals:         0       0       0       0       0       0       0       0
  1251 ;;      Temps:          0       0       0       0       0       0       0       0
  1252 ;;      Totals:         0       0       0       0       0       0       0       0
  1253 ;;Total ram usage:        0 bytes
  1254 ;; Hardware stack levels used: 1
  1255 ;; Hardware stack levels required when called: 4
  1256 ;; This function calls:
  1257 ;;		_TMR2_SetInterruptHandler
  1258 ;; This function is called by:
  1259 ;;		_SYSTEM_Initialize
  1260 ;; This function uses a non-reentrant model
  1261 ;;
  1262                           
  1263     002B                     _TMR2_Initialize:	
  1264                           ;psect for function _TMR2_Initialize
  1265                           
  1266     002B                     l809:	
  1267                           ;incstack = 0
  1268                           ; Regs used in _TMR2_Initialize: [wreg+status,2+status,0+pclath+cstack]
  1269                           
  1270                           
  1271                           ;mcc_generated_files/tmr2.c: 69:     T2CLKCON = 0x01;
  1272     002B  3001               	movlw	1
  1273     002C  0145               	movlb	5	; select bank5
  1274     002D  0090               	movwf	16	;volatile
  1275     002E                     l811:
  1276                           
  1277                           ;mcc_generated_files/tmr2.c: 72:     T2HLT = 0x00;
  1278     002E  018F               	clrf	15	;volatile
  1279     002F                     l813:
  1280                           
  1281                           ;mcc_generated_files/tmr2.c: 75:     T2RST = 0x00;
  1282     002F  0191               	clrf	17	;volatile
  1283                           
  1284                           ;mcc_generated_files/tmr2.c: 78:     T2PR = 0x19;
  1285     0030  3019               	movlw	25
  1286     0031  008D               	movwf	13	;volatile
  1287     0032                     l815:
  1288                           
  1289                           ;mcc_generated_files/tmr2.c: 81:     T2TMR = 0x00;
  1290     0032  018C               	clrf	12	;volatile
  1291     0033                     l817:
  1292                           
  1293                           ;mcc_generated_files/tmr2.c: 84:     PIR1bits.TMR2IF = 0;
  1294     0033  014E               	movlb	14	; select bank14
  1295     0034  130D               	bcf	13,6	;volatile
  1296     0035                     l819:
  1297                           
  1298                           ;mcc_generated_files/tmr2.c: 87:     PIE1bits.TMR2IE = 1;
  1299     0035  1717               	bsf	23,6	;volatile
  1300     0036                     l821:
  1301                           
  1302                           ;mcc_generated_files/tmr2.c: 90:     TMR2_SetInterruptHandler(TMR2_DefaultInterruptHandl
      +                          er);
  1303     0036  3091               	movlw	low _TMR2_DefaultInterruptHandler
  1304     0037  00F2               	movwf	TMR2_SetInterruptHandler@InterruptHandler
  1305     0038  3000               	movlw	high _TMR2_DefaultInterruptHandler
  1306     0039  00F3               	movwf	TMR2_SetInterruptHandler@InterruptHandler+1
  1307     003A  3180  2089  3180   	fcall	_TMR2_SetInterruptHandler
  1308     003D                     l823:
  1309                           
  1310                           ;mcc_generated_files/tmr2.c: 93:     T2CON = 0x80;
  1311     003D  3080               	movlw	128
  1312     003E  0145               	movlb	5	; select bank5
  1313     003F  008E               	movwf	14	;volatile
  1314     0040                     l108:
  1315     0040  0008               	return
  1316     0041                     __end_of_TMR2_Initialize:
  1317                           
  1318                           	psect	text4
  1319     0089                     __ptext4:	
  1320 ;; *************** function _TMR2_SetInterruptHandler *****************
  1321 ;; Defined at:
  1322 ;;		line 178 in file "mcc_generated_files/tmr2.c"
  1323 ;; Parameters:    Size  Location     Type
  1324 ;;  InterruptHan    2    0[COMMON] PTR FTN()void 
  1325 ;;		 -> TMR2_DefaultInterruptHandler(1), 
  1326 ;; Auto vars:     Size  Location     Type
  1327 ;;		None
  1328 ;; Return value:  Size  Location     Type
  1329 ;;                  1    wreg      void 
  1330 ;; Registers used:
  1331 ;;		wreg
  1332 ;; Tracked objects:
  1333 ;;		On entry : 0/0
  1334 ;;		On exit  : 0/0
  1335 ;;		Unchanged: 0/0
  1336 ;; Data sizes:     COMMON   BANK0   BANK1   BANK2   BANK3   BANK4   BANK5   BANK6
  1337 ;;      Params:         2       0       0       0       0       0       0       0
  1338 ;;      Locals:         0       0       0       0       0       0       0       0
  1339 ;;      Temps:          0       0       0       0       0       0       0       0
  1340 ;;      Totals:         2       0       0       0       0       0       0       0
  1341 ;;Total ram usage:        2 bytes
  1342 ;; Hardware stack levels used: 1
  1343 ;; Hardware stack levels required when called: 3
  1344 ;; This function calls:
  1345 ;;		Nothing
  1346 ;; This function is called by:
  1347 ;;		_TMR2_Initialize
  1348 ;; This function uses a non-reentrant model
  1349 ;;
  1350                           
  1351     0089                     _TMR2_SetInterruptHandler:	
  1352                           ;psect for function _TMR2_SetInterruptHandler
  1353                           
  1354     0089                     l807:	
  1355                           ;incstack = 0
  1356                           ; Regs used in _TMR2_SetInterruptHandler: [wreg]
  1357                           
  1358                           
  1359                           ;mcc_generated_files/tmr2.c: 179:     TMR2_InterruptHandler = InterruptHandler;
  1360     0089  0873               	movf	TMR2_SetInterruptHandler@InterruptHandler+1,w
  1361     008A  00F1               	movwf	_TMR2_InterruptHandler+1
  1362     008B  0872               	movf	TMR2_SetInterruptHandler@InterruptHandler,w
  1363     008C  00F0               	movwf	_TMR2_InterruptHandler
  1364     008D                     l151:
  1365     008D  0008               	return
  1366     008E                     __end_of_TMR2_SetInterruptHandler:
  1367                           
  1368                           	psect	text5
  1369     007B                     __ptext5:	
  1370 ;; *************** function _PWM3_Initialize *****************
  1371 ;; Defined at:
  1372 ;;		line 58 in file "mcc_generated_files/pwm3.c"
  1373 ;; Parameters:    Size  Location     Type
  1374 ;;		None
  1375 ;; Auto vars:     Size  Location     Type
  1376 ;;		None
  1377 ;; Return value:  Size  Location     Type
  1378 ;;                  1    wreg      void 
  1379 ;; Registers used:
  1380 ;;		wreg
  1381 ;; Tracked objects:
  1382 ;;		On entry : 0/0
  1383 ;;		On exit  : 0/0
  1384 ;;		Unchanged: 0/0
  1385 ;; Data sizes:     COMMON   BANK0   BANK1   BANK2   BANK3   BANK4   BANK5   BANK6
  1386 ;;      Params:         0       0       0       0       0       0       0       0
  1387 ;;      Locals:         0       0       0       0       0       0       0       0
  1388 ;;      Temps:          0       0       0       0       0       0       0       0
  1389 ;;      Totals:         0       0       0       0       0       0       0       0
  1390 ;;Total ram usage:        0 bytes
  1391 ;; Hardware stack levels used: 1
  1392 ;; Hardware stack levels required when called: 3
  1393 ;; This function calls:
  1394 ;;		Nothing
  1395 ;; This function is called by:
  1396 ;;		_main
  1397 ;;		_SYSTEM_Initialize
  1398 ;; This function uses a non-reentrant model
  1399 ;;
  1400                           
  1401     007B                     _PWM3_Initialize:	
  1402                           ;psect for function _PWM3_Initialize
  1403                           
  1404     007B                     l709:	
  1405                           ;incstack = 0
  1406                           ; Regs used in _PWM3_Initialize: [wreg]
  1407                           
  1408                           
  1409                           ;mcc_generated_files/pwm3.c: 62:     PWM3CON = 0x80;
  1410     007B  3080               	movlw	128
  1411     007C  0146               	movlb	6	; select bank6
  1412     007D  0096               	movwf	22	;volatile
  1413                           
  1414                           ;mcc_generated_files/pwm3.c: 65:     PWM3DCH = 0x0C;
  1415     007E  300C               	movlw	12
  1416     007F  0095               	movwf	21	;volatile
  1417                           
  1418                           ;mcc_generated_files/pwm3.c: 68:     PWM3DCL = 0xC0;
  1419     0080  30C0               	movlw	192
  1420     0081  0094               	movwf	20	;volatile
  1421     0082                     l46:
  1422     0082  0008               	return
  1423     0083                     __end_of_PWM3_Initialize:
  1424                           
  1425                           	psect	text6
  1426     0041                     __ptext6:	
  1427 ;; *************** function _PIN_MANAGER_Initialize *****************
  1428 ;; Defined at:
  1429 ;;		line 55 in file "mcc_generated_files/pin_manager.c"
  1430 ;; Parameters:    Size  Location     Type
  1431 ;;		None
  1432 ;; Auto vars:     Size  Location     Type
  1433 ;;		None
  1434 ;; Return value:  Size  Location     Type
  1435 ;;                  1    wreg      void 
  1436 ;; Registers used:
  1437 ;;		wreg, status,2
  1438 ;; Tracked objects:
  1439 ;;		On entry : 0/0
  1440 ;;		On exit  : 0/0
  1441 ;;		Unchanged: 0/0
  1442 ;; Data sizes:     COMMON   BANK0   BANK1   BANK2   BANK3   BANK4   BANK5   BANK6
  1443 ;;      Params:         0       0       0       0       0       0       0       0
  1444 ;;      Locals:         0       0       0       0       0       0       0       0
  1445 ;;      Temps:          0       0       0       0       0       0       0       0
  1446 ;;      Totals:         0       0       0       0       0       0       0       0
  1447 ;;Total ram usage:        0 bytes
  1448 ;; Hardware stack levels used: 1
  1449 ;; Hardware stack levels required when called: 3
  1450 ;; This function calls:
  1451 ;;		Nothing
  1452 ;; This function is called by:
  1453 ;;		_SYSTEM_Initialize
  1454 ;; This function uses a non-reentrant model
  1455 ;;
  1456                           
  1457     0041                     _PIN_MANAGER_Initialize:	
  1458                           ;psect for function _PIN_MANAGER_Initialize
  1459                           
  1460     0041                     l711:	
  1461                           ;incstack = 0
  1462                           ; Regs used in _PIN_MANAGER_Initialize: [wreg+status,2]
  1463                           
  1464                           
  1465                           ;mcc_generated_files/pin_manager.c: 60:     LATA = 0x00;
  1466     0041  0140               	movlb	0	; select bank0
  1467     0042  0198               	clrf	24	;volatile
  1468     0043                     l713:
  1469                           
  1470                           ;mcc_generated_files/pin_manager.c: 65:     TRISA = 0x2F;
  1471     0043  302F               	movlw	47
  1472     0044  0092               	movwf	18	;volatile
  1473     0045                     l715:
  1474                           
  1475                           ;mcc_generated_files/pin_manager.c: 70:     ANSELA = 0x27;
  1476     0045  3027               	movlw	39
  1477     0046  017E               	movlb	62	; select bank62
  1478     0047  00B8               	movwf	56	;volatile
  1479                           
  1480                           ;mcc_generated_files/pin_manager.c: 75:     WPUA = 0x00;
  1481     0048  01B9               	clrf	57	;volatile
  1482                           
  1483                           ;mcc_generated_files/pin_manager.c: 80:     ODCONA = 0x00;
  1484     0049  01BA               	clrf	58	;volatile
  1485     004A                     l717:
  1486                           
  1487                           ;mcc_generated_files/pin_manager.c: 85:     SLRCONA = 0x37;
  1488     004A  3037               	movlw	55
  1489     004B  00BB               	movwf	59	;volatile
  1490     004C                     l719:
  1491                           
  1492                           ;mcc_generated_files/pin_manager.c: 90:     INLVLA = 0x3F;
  1493     004C  303F               	movlw	63
  1494     004D  00BC               	movwf	60	;volatile
  1495     004E                     l721:
  1496                           
  1497                           ;mcc_generated_files/pin_manager.c: 98:     PIE0bits.IOCIE = 1;
  1498     004E  014E               	movlb	14	; select bank14
  1499     004F  1616               	bsf	22,4	;volatile
  1500     0050                     l723:
  1501                           
  1502                           ;mcc_generated_files/pin_manager.c: 101:     RA4PPS = 0x03;
  1503     0050  3003               	movlw	3
  1504     0051  017E               	movlb	62	; select bank62
  1505     0052  0094               	movwf	20	;volatile
  1506     0053                     l70:
  1507     0053  0008               	return
  1508     0054                     __end_of_PIN_MANAGER_Initialize:
  1509                           
  1510                           	psect	text7
  1511     0083                     __ptext7:	
  1512 ;; *************** function _OSCILLATOR_Initialize *****************
  1513 ;; Defined at:
  1514 ;;		line 60 in file "mcc_generated_files/mcc.c"
  1515 ;; Parameters:    Size  Location     Type
  1516 ;;		None
  1517 ;; Auto vars:     Size  Location     Type
  1518 ;;		None
  1519 ;; Return value:  Size  Location     Type
  1520 ;;                  1    wreg      void 
  1521 ;; Registers used:
  1522 ;;		wreg, status,2
  1523 ;; Tracked objects:
  1524 ;;		On entry : 0/0
  1525 ;;		On exit  : 0/0
  1526 ;;		Unchanged: 0/0
  1527 ;; Data sizes:     COMMON   BANK0   BANK1   BANK2   BANK3   BANK4   BANK5   BANK6
  1528 ;;      Params:         0       0       0       0       0       0       0       0
  1529 ;;      Locals:         0       0       0       0       0       0       0       0
  1530 ;;      Temps:          0       0       0       0       0       0       0       0
  1531 ;;      Totals:         0       0       0       0       0       0       0       0
  1532 ;;Total ram usage:        0 bytes
  1533 ;; Hardware stack levels used: 1
  1534 ;; Hardware stack levels required when called: 3
  1535 ;; This function calls:
  1536 ;;		Nothing
  1537 ;; This function is called by:
  1538 ;;		_SYSTEM_Initialize
  1539 ;; This function uses a non-reentrant model
  1540 ;;
  1541                           
  1542     0083                     _OSCILLATOR_Initialize:	
  1543                           ;psect for function _OSCILLATOR_Initialize
  1544                           
  1545     0083                     l741:	
  1546                           ;incstack = 0
  1547                           ; Regs used in _OSCILLATOR_Initialize: [wreg+status,2]
  1548                           
  1549                           
  1550                           ;mcc_generated_files/mcc.c: 63:     OSCEN = 0x00;
  1551     0083  0151               	movlb	17	; select bank17
  1552     0084  0191               	clrf	17	;volatile
  1553     0085                     l743:
  1554                           
  1555                           ;mcc_generated_files/mcc.c: 65:     OSCFRQ = 0x03;
  1556     0085  3003               	movlw	3
  1557     0086  0093               	movwf	19	;volatile
  1558     0087                     l745:
  1559                           
  1560                           ;mcc_generated_files/mcc.c: 67:     OSCTUNE = 0x00;
  1561     0087  0192               	clrf	18	;volatile
  1562     0088                     l178:
  1563     0088  0008               	return
  1564     0089                     __end_of_OSCILLATOR_Initialize:
  1565                           
  1566                           	psect	intentry
  1567     0004                     __pintentry:	
  1568 ;; *************** function _INTERRUPT_InterruptManager *****************
  1569 ;; Defined at:
  1570 ;;		line 52 in file "mcc_generated_files/interrupt_manager.c"
  1571 ;; Parameters:    Size  Location     Type
  1572 ;;		None
  1573 ;; Auto vars:     Size  Location     Type
  1574 ;;		None
  1575 ;; Return value:  Size  Location     Type
  1576 ;;                  1    wreg      void 
  1577 ;; Registers used:
  1578 ;;		wreg, status,2, status,0, pclath, cstack
  1579 ;; Tracked objects:
  1580 ;;		On entry : 0/0
  1581 ;;		On exit  : 0/0
  1582 ;;		Unchanged: 0/0
  1583 ;; Data sizes:     COMMON   BANK0   BANK1   BANK2   BANK3   BANK4   BANK5   BANK6
  1584 ;;      Params:         0       0       0       0       0       0       0       0
  1585 ;;      Locals:         0       0       0       0       0       0       0       0
  1586 ;;      Temps:          0       0       0       0       0       0       0       0
  1587 ;;      Totals:         0       0       0       0       0       0       0       0
  1588 ;;Total ram usage:        0 bytes
  1589 ;; Hardware stack levels used: 1
  1590 ;; Hardware stack levels required when called: 2
  1591 ;; This function calls:
  1592 ;;		_PIN_MANAGER_IOC
  1593 ;;		_TMR2_ISR
  1594 ;; This function is called by:
  1595 ;;		Interrupt level 1
  1596 ;; This function uses a non-reentrant model
  1597 ;;
  1598                           
  1599     0004                     _INTERRUPT_InterruptManager:
  1600                           
  1601                           ;incstack = 0
  1602     0004  147E               	bsf	int$flags,0	;set compiler interrupt flag (level 1)
  1603                           
  1604                           ; Regs used in _INTERRUPT_InterruptManager: [wreg+status,2+status,0+pclath+cstack]
  1605     0005  3180               	pagesel	$
  1606     0006                     i1l777:
  1607                           
  1608                           ;mcc_generated_files/interrupt_manager.c: 55:     if(PIE0bits.IOCIE == 1 && PIR0bits.IOC
      +                          IF == 1)
  1609     0006  014E               	movlb	14	; select bank14
  1610     0007  1E16               	btfss	22,4	;volatile
  1611     0008  280A               	goto	u2_21
  1612     0009  280B               	goto	u2_20
  1613     000A                     u2_21:
  1614     000A  2813               	goto	i1l31
  1615     000B                     u2_20:
  1616     000B                     i1l779:
  1617     000B  1E0C               	btfss	12,4	;volatile
  1618     000C  280E               	goto	u3_21
  1619     000D  280F               	goto	u3_20
  1620     000E                     u3_21:
  1621     000E  2813               	goto	i1l31
  1622     000F                     u3_20:
  1623     000F                     i1l781:
  1624                           
  1625                           ;mcc_generated_files/interrupt_manager.c: 56:     {;mcc_generated_files/interrupt_manage
      +                          r.c: 57:         PIN_MANAGER_IOC();
  1626     000F  3180  2092  3180   	fcall	_PIN_MANAGER_IOC
  1627                           
  1628                           ;mcc_generated_files/interrupt_manager.c: 58:     }
  1629     0012  2823               	goto	i1l37
  1630     0013                     i1l31:	
  1631                           ;mcc_generated_files/interrupt_manager.c: 59:     else if(INTCONbits.PEIE == 1)
  1632                           
  1633     0013  1F0B               	btfss	11,6	;volatile
  1634     0014  2816               	goto	u4_21
  1635     0015  2817               	goto	u4_20
  1636     0016                     u4_21:
  1637     0016  2823               	goto	i1l37
  1638     0017                     u4_20:
  1639     0017                     i1l783:
  1640                           
  1641                           ;mcc_generated_files/interrupt_manager.c: 60:     {;mcc_generated_files/interrupt_manage
      +                          r.c: 61:         if(PIE1bits.TMR2IE == 1 && PIR1bits.TMR2IF == 1)
  1642     0017  1F17               	btfss	23,6	;volatile
  1643     0018  281A               	goto	u5_21
  1644     0019  281B               	goto	u5_20
  1645     001A                     u5_21:
  1646     001A  2823               	goto	i1l36
  1647     001B                     u5_20:
  1648     001B                     i1l785:
  1649     001B  1F0D               	btfss	13,6	;volatile
  1650     001C  281E               	goto	u6_21
  1651     001D  281F               	goto	u6_20
  1652     001E                     u6_21:
  1653     001E  2823               	goto	i1l36
  1654     001F                     u6_20:
  1655     001F                     i1l787:
  1656                           
  1657                           ;mcc_generated_files/interrupt_manager.c: 62:         {;mcc_generated_files/interrupt_ma
      +                          nager.c: 63:             TMR2_ISR();
  1658     001F  3180  2064  3180   	fcall	_TMR2_ISR
  1659                           
  1660                           ;mcc_generated_files/interrupt_manager.c: 64:         }
  1661     0022  2823               	goto	i1l37
  1662     0023                     i1l36:	
  1663                           ;mcc_generated_files/interrupt_manager.c: 71:     {;mcc_generated_files/interrupt_manage
      +                          r.c: 73:     }
  1664                           
  1665     0023                     i1l37:
  1666     0023  107E               	bcf	int$flags,0	;clear compiler interrupt flag (level 1)
  1667     0024  0009               	retfie
  1668     0025                     __end_of_INTERRUPT_InterruptManager:
  1669                           
  1670                           	psect	text9
  1671     0064                     __ptext9:	
  1672 ;; *************** function _TMR2_ISR *****************
  1673 ;; Defined at:
  1674 ;;		line 165 in file "mcc_generated_files/tmr2.c"
  1675 ;; Parameters:    Size  Location     Type
  1676 ;;		None
  1677 ;; Auto vars:     Size  Location     Type
  1678 ;;		None
  1679 ;; Return value:  Size  Location     Type
  1680 ;;                  1    wreg      void 
  1681 ;; Registers used:
  1682 ;;		wreg, status,2, status,0, pclath, cstack
  1683 ;; Tracked objects:
  1684 ;;		On entry : 0/0
  1685 ;;		On exit  : 0/0
  1686 ;;		Unchanged: 0/0
  1687 ;; Data sizes:     COMMON   BANK0   BANK1   BANK2   BANK3   BANK4   BANK5   BANK6
  1688 ;;      Params:         0       0       0       0       0       0       0       0
  1689 ;;      Locals:         0       0       0       0       0       0       0       0
  1690 ;;      Temps:          0       0       0       0       0       0       0       0
  1691 ;;      Totals:         0       0       0       0       0       0       0       0
  1692 ;;Total ram usage:        0 bytes
  1693 ;; Hardware stack levels used: 1
  1694 ;; Hardware stack levels required when called: 1
  1695 ;; This function calls:
  1696 ;;		Absolute function
  1697 ;;		_TMR2_DefaultInterruptHandler
  1698 ;; This function is called by:
  1699 ;;		_INTERRUPT_InterruptManager
  1700 ;; This function uses a non-reentrant model
  1701 ;;
  1702                           
  1703     0064                     _TMR2_ISR:	
  1704                           ;psect for function _TMR2_ISR
  1705                           
  1706     0064                     i1l757:	
  1707                           ;incstack = 0
  1708                           ; Regs used in _TMR2_ISR: [wreg+status,2+status,0+pclath+cstack]
  1709                           
  1710                           
  1711                           ;mcc_generated_files/tmr2.c: 169:     PIR1bits.TMR2IF = 0;
  1712     0064  014E               	movlb	14	; select bank14
  1713     0065  130D               	bcf	13,6	;volatile
  1714     0066                     i1l759:
  1715                           
  1716                           ;mcc_generated_files/tmr2.c: 171:     if(TMR2_InterruptHandler)
  1717     0066  0870               	movf	_TMR2_InterruptHandler,w
  1718     0067  0471               	iorwf	_TMR2_InterruptHandler+1,w
  1719     0068  1903               	btfsc	3,2
  1720     0069  286B               	goto	u1_21
  1721     006A  286C               	goto	u1_20
  1722     006B                     u1_21:
  1723     006B  2871               	goto	i1l148
  1724     006C                     u1_20:
  1725     006C                     i1l761:
  1726                           
  1727                           ;mcc_generated_files/tmr2.c: 172:     {;mcc_generated_files/tmr2.c: 173:         TMR2_In
      +                          terruptHandler();
  1728     006C  0871               	movf	_TMR2_InterruptHandler+1,w
  1729     006D  008A               	movwf	10
  1730     006E  0870               	movf	_TMR2_InterruptHandler,w
  1731     006F  000A               	callw
  1732     0070  3180               	pagesel	$
  1733     0071                     i1l148:
  1734     0071  0008               	return
  1735     0072                     __end_of_TMR2_ISR:
  1736                           
  1737                           	psect	text10
  1738     0091                     __ptext10:	
  1739 ;; *************** function _TMR2_DefaultInterruptHandler *****************
  1740 ;; Defined at:
  1741 ;;		line 182 in file "mcc_generated_files/tmr2.c"
  1742 ;; Parameters:    Size  Location     Type
  1743 ;;		None
  1744 ;; Auto vars:     Size  Location     Type
  1745 ;;		None
  1746 ;; Return value:  Size  Location     Type
  1747 ;;                  1    wreg      void 
  1748 ;; Registers used:
  1749 ;;		None
  1750 ;; Tracked objects:
  1751 ;;		On entry : 0/0
  1752 ;;		On exit  : 0/0
  1753 ;;		Unchanged: 0/0
  1754 ;; Data sizes:     COMMON   BANK0   BANK1   BANK2   BANK3   BANK4   BANK5   BANK6
  1755 ;;      Params:         0       0       0       0       0       0       0       0
  1756 ;;      Locals:         0       0       0       0       0       0       0       0
  1757 ;;      Temps:          0       0       0       0       0       0       0       0
  1758 ;;      Totals:         0       0       0       0       0       0       0       0
  1759 ;;Total ram usage:        0 bytes
  1760 ;; Hardware stack levels used: 1
  1761 ;; This function calls:
  1762 ;;		Nothing
  1763 ;; This function is called by:
  1764 ;;		_TMR2_Initialize
  1765 ;;		_TMR2_ISR
  1766 ;; This function uses a non-reentrant model
  1767 ;;
  1768                           
  1769     0091                     _TMR2_DefaultInterruptHandler:	
  1770                           ;psect for function _TMR2_DefaultInterruptHandler
  1771                           
  1772     0091                     i1l154:	
  1773                           ;incstack = 0
  1774                           ; Regs used in _TMR2_DefaultInterruptHandler: []
  1775                           
  1776     0091  0008               	return
  1777     0092                     __end_of_TMR2_DefaultInterruptHandler:
  1778                           
  1779                           	psect	text11
  1780     0092                     __ptext11:	
  1781 ;; *************** function _PIN_MANAGER_IOC *****************
  1782 ;; Defined at:
  1783 ;;		line 104 in file "mcc_generated_files/pin_manager.c"
  1784 ;; Parameters:    Size  Location     Type
  1785 ;;		None
  1786 ;; Auto vars:     Size  Location     Type
  1787 ;;		None
  1788 ;; Return value:  Size  Location     Type
  1789 ;;                  1    wreg      void 
  1790 ;; Registers used:
  1791 ;;		None
  1792 ;; Tracked objects:
  1793 ;;		On entry : 0/0
  1794 ;;		On exit  : 0/0
  1795 ;;		Unchanged: 0/0
  1796 ;; Data sizes:     COMMON   BANK0   BANK1   BANK2   BANK3   BANK4   BANK5   BANK6
  1797 ;;      Params:         0       0       0       0       0       0       0       0
  1798 ;;      Locals:         0       0       0       0       0       0       0       0
  1799 ;;      Temps:          0       0       0       0       0       0       0       0
  1800 ;;      Totals:         0       0       0       0       0       0       0       0
  1801 ;;Total ram usage:        0 bytes
  1802 ;; Hardware stack levels used: 1
  1803 ;; This function calls:
  1804 ;;		Nothing
  1805 ;; This function is called by:
  1806 ;;		_INTERRUPT_InterruptManager
  1807 ;; This function uses a non-reentrant model
  1808 ;;
  1809                           
  1810     0092                     _PIN_MANAGER_IOC:	
  1811                           ;psect for function _PIN_MANAGER_IOC
  1812                           
  1813     0092                     i1l73:	
  1814                           ;incstack = 0
  1815                           ; Regs used in _PIN_MANAGER_IOC: []
  1816                           
  1817     0092  0008               	return
  1818     0093                     __end_of_PIN_MANAGER_IOC:
  1819     007E                     btemp	set	126	;btemp
  1820     007E                     int$flags	set	126
  1821     007E                     wtemp0	set	126
  1822                           
  1823                           	psect	idloc
  1824                           
  1825                           ;Config register IDLOC0 @ 0x8000
  1826                           ;	unspecified, using default values
  1827     8000                     	org	32768
  1828     8000  3FFF               	dw	16383
  1829                           
  1830                           ;Config register IDLOC1 @ 0x8001
  1831                           ;	unspecified, using default values
  1832     8001                     	org	32769
  1833     8001  3FFF               	dw	16383
  1834                           
  1835                           ;Config register IDLOC2 @ 0x8002
  1836                           ;	unspecified, using default values
  1837     8002                     	org	32770
  1838     8002  3FFF               	dw	16383
  1839                           
  1840                           ;Config register IDLOC3 @ 0x8003
  1841                           ;	unspecified, using default values
  1842     8003                     	org	32771
  1843     8003  3FFF               	dw	16383
  1844                           
  1845                           	psect	config
  1846                           
  1847                           ;Config register CONFIG1 @ 0x8007
  1848                           ;	External Oscillator Mode Selection bits
  1849                           ;	FEXTOSC = OFF, Oscillator not enabled
  1850                           ;	Power-up Default Value for COSC bits
  1851                           ;	RSTOSC = HFINTOSC_32MHZ, HFINTOSC (32 MHz)
  1852                           ;	Clock Out Enable bit
  1853                           ;	CLKOUTEN = OFF, CLKOUT function is disabled; I/O function on RA4
  1854                           ;	VDD Range Analog Calibration Selection bit
  1855                           ;	VDDAR = HI, Internal analog systems are calibrated for operation between VDD = 2.3V - 
      +                          5.5V
  1856     8007                     	org	32775
  1857     8007  3FCD               	dw	16333
  1858                           
  1859                           ;Config register CONFIG2 @ 0x8008
  1860                           ;	Master Clear Enable bit
  1861                           ;	MCLRE = EXTMCLR, If LVP = 0, MCLR pin is MCLR; If LVP = 1, RA3 pin function is MCLR
  1862                           ;	Power-up Timer Selection bits
  1863                           ;	PWRTS = PWRT_OFF, PWRT is disabled
  1864                           ;	WDT Operating Mode bits
  1865                           ;	WDTE = OFF, WDT disabled; SEN is ignored
  1866                           ;	Brown-out Reset Enable bits
  1867                           ;	BOREN = ON, Brown-out Reset Enabled, SBOREN bit is ignored
  1868                           ;	Brown-out Reset Voltage Selection bit
  1869                           ;	BORV = LO, Brown-out Reset Voltage (VBOR) set to 1.9V
  1870                           ;	PPSLOCKED One-Way Set Enable bit
  1871                           ;	PPS1WAY = ON, The PPSLOCKED bit can be set once after an unlocking sequence is execute
      +                          d; once PPSLOCKED is set, all future changes to PPS registers are prevented
  1872                           ;	Stack Overflow/Underflow Reset Enable bit
  1873                           ;	STVREN = ON, Stack Overflow or Underflow will cause a reset
  1874     8008                     	org	32776
  1875     8008  3FE7               	dw	16359
  1876                           
  1877                           ;Config register CONFIG3 @ 0x8009
  1878                           ;	unspecified, using default values
  1879     8009                     	org	32777
  1880     8009  3FFF               	dw	16383
  1881                           
  1882                           ;Config register CONFIG4 @ 0x800A
  1883                           ;	Boot Block Size Selection bits
  1884                           ;	BBSIZE = BB512, 512 words boot block size
  1885                           ;	Boot Block Enable bit
  1886                           ;	BBEN = OFF, Boot Block is disabled
  1887                           ;	SAF Enable bit
  1888                           ;	SAFEN = OFF, SAF is disabled
  1889                           ;	Application Block Write Protection bit
  1890                           ;	WRTAPP = OFF, Application Block is not write-protected
  1891                           ;	Boot Block Write Protection bit
  1892                           ;	WRTB = OFF, Boot Block is not write-protected
  1893                           ;	Configuration Registers Write Protection bit
  1894                           ;	WRTC = OFF, Configuration Registers are not write-protected
  1895                           ;	Storage Area Flash (SAF) Write Protection bit
  1896                           ;	WRTSAF = OFF, SAF is not write-protected
  1897                           ;	Low Voltage Programming Enable bit
  1898                           ;	LVP = ON, Low Voltage programming enabled. MCLR/Vpp pin function is MCLR. MCLRE Config
      +                          uration bit is ignored.
  1899     800A                     	org	32778
  1900     800A  3FFF               	dw	16383
  1901                           
  1902                           ;Config register CONFIG5 @ 0x800B
  1903                           ;	User Program Flash Memory Code Protection bit
  1904                           ;	CP = OFF, User Program Flash Memory code protection is disabled
  1905     800B                     	org	32779
  1906     800B  3FFF               	dw	16383

Data Sizes:
    Strings     0
    Constant    0
    Data        0
    BSS         0
    Persistent  34
    Stack       0

Auto Spaces:
    Space          Size  Autos    Used
    COMMON           14      2       4
    BANK0            80      0       0
    BANK1            80      0       0
    BANK2            80      0       0
    BANK3            80      0       0
    BANK4            80      0       0
    BANK5            80      0       0
    BANK6            16      0       0

Pointer List with Targets:

    TMR2_SetInterruptHandler@InterruptHandler	PTR FTN()void  size(2) Largest target is 1
		 -> TMR2_DefaultInterruptHandler(), 

    TMR2_InterruptHandler	PTR FTN()void  size(2) Largest target is 1
		 -> Absolute function(), TMR2_DefaultInterruptHandler(), 


Critical Paths under _main in COMMON

    _TMR2_Initialize->_TMR2_SetInterruptHandler

Critical Paths under _INTERRUPT_InterruptManager in COMMON

    None.

Critical Paths under _main in BANK0

    None.

Critical Paths under _INTERRUPT_InterruptManager in BANK0

    None.

Critical Paths under _main in BANK1

    None.

Critical Paths under _INTERRUPT_InterruptManager in BANK1

    None.

Critical Paths under _main in BANK2

    None.

Critical Paths under _INTERRUPT_InterruptManager in BANK2

    None.

Critical Paths under _main in BANK3

    None.

Critical Paths under _INTERRUPT_InterruptManager in BANK3

    None.

Critical Paths under _main in BANK4

    None.

Critical Paths under _INTERRUPT_InterruptManager in BANK4

    None.

Critical Paths under _main in BANK5

    None.

Critical Paths under _INTERRUPT_InterruptManager in BANK5

    None.

Critical Paths under _main in BANK6

    None.

Critical Paths under _INTERRUPT_InterruptManager in BANK6

    None.

Call Graph Tables:

 ---------------------------------------------------------------------------------
 (Depth) Function   	        Calls       Base Space   Used Autos Params    Refs
 ---------------------------------------------------------------------------------
 (0) _main                                                 2     2      0      98
                    _PWM3_Initialize
                  _SYSTEM_Initialize
 ---------------------------------------------------------------------------------
 (1) _SYSTEM_Initialize                                    0     0      0      98
              _OSCILLATOR_Initialize
             _PIN_MANAGER_Initialize
                    _PWM3_Initialize
                    _TMR2_Initialize
                     _WDT_Initialize
 ---------------------------------------------------------------------------------
 (2) _WDT_Initialize                                       0     0      0       0
 ---------------------------------------------------------------------------------
 (2) _TMR2_Initialize                                      0     0      0      98
           _TMR2_SetInterruptHandler
 ---------------------------------------------------------------------------------
 (3) _TMR2_SetInterruptHandler                             2     0      2      98
                                              0 COMMON     2     0      2
 ---------------------------------------------------------------------------------
 (2) _PWM3_Initialize                                      0     0      0       0
 ---------------------------------------------------------------------------------
 (2) _PIN_MANAGER_Initialize                               0     0      0       0
 ---------------------------------------------------------------------------------
 (2) _OSCILLATOR_Initialize                                0     0      0       0
 ---------------------------------------------------------------------------------
 Estimated maximum stack depth 3
 ---------------------------------------------------------------------------------
 (Depth) Function   	        Calls       Base Space   Used Autos Params    Refs
 ---------------------------------------------------------------------------------
 (4) _INTERRUPT_InterruptManager                           0     0      0       0
                    _PIN_MANAGER_IOC
                           _TMR2_ISR
 ---------------------------------------------------------------------------------
 (5) _TMR2_ISR                                             0     0      0       0
                   Absolute function *
       _TMR2_DefaultInterruptHandler *
 ---------------------------------------------------------------------------------
 (6) _TMR2_DefaultInterruptHandler                         0     0      0       0
 ---------------------------------------------------------------------------------
 (6) Absolute function(Fake)                               0     0      0       0
 ---------------------------------------------------------------------------------
 (5) _PIN_MANAGER_IOC                                      0     0      0       0
 ---------------------------------------------------------------------------------
 Estimated maximum stack depth 6
 ---------------------------------------------------------------------------------

 Call Graph Graphs:

 _main (ROOT)
   _PWM3_Initialize
   _SYSTEM_Initialize
     _OSCILLATOR_Initialize
     _PIN_MANAGER_Initialize
     _PWM3_Initialize
     _TMR2_Initialize
       _TMR2_SetInterruptHandler
     _WDT_Initialize

 _INTERRUPT_InterruptManager (ROOT)
   _PIN_MANAGER_IOC
   _TMR2_ISR
     Absolute function(Fake) *
     _TMR2_DefaultInterruptHandler *

 Address spaces:
Name               Size   Autos  Total    Cost      Usage
BIGRAM             1F0      0       0       0        0.0%
NULL                 0      0       0       0        0.0%
CODE                 0      0       0       0        0.0%
BITCOMMON            E      0       0       1        0.0%
BITSFR0              0      0       0       1        0.0%
SFR0                 0      0       0       1        0.0%
COMMON               E      2       4       2       28.6%
BITSFR1              0      0       0       2        0.0%
SFR1                 0      0       0       2        0.0%
BITSFR2              0      0       0       3        0.0%
SFR2                 0      0       0       3        0.0%
STACK                0      0       0       3        0.0%
BITSFR3              0      0       0       4        0.0%
SFR3                 0      0       0       4        0.0%
ABS                  0      0       4       4        0.0%
BITBANK0            50      0       0       5        0.0%
BITSFR4              0      0       0       5        0.0%
SFR4                 0      0       0       5        0.0%
BANK0               50      0       0       6        0.0%
BITSFR5              0      0       0       6        0.0%
SFR5                 0      0       0       6        0.0%
BITBANK1            50      0       0       7        0.0%
BITSFR6              0      0       0       7        0.0%
SFR6                 0      0       0       7        0.0%
BANK1               50      0       0       8        0.0%
BITSFR7              0      0       0       8        0.0%
SFR7                 0      0       0       8        0.0%
BITBANK2            50      0       0       9        0.0%
BITSFR8              0      0       0       9        0.0%
SFR8                 0      0       0       9        0.0%
BANK2               50      0       0      10        0.0%
BITSFR9              0      0       0      10        0.0%
SFR9                 0      0       0      10        0.0%
BITBANK3            50      0       0      11        0.0%
BITSFR10             0      0       0      11        0.0%
SFR10                0      0       0      11        0.0%
BANK3               50      0       0      12        0.0%
BITSFR11             0      0       0      12        0.0%
SFR11                0      0       0      12        0.0%
BITBANK4            50      0       0      13        0.0%
BITSFR12             0      0       0      13        0.0%
SFR12                0      0       0      13        0.0%
BANK4               50      0       0      14        0.0%
BITSFR13             0      0       0      14        0.0%
SFR13                0      0       0      14        0.0%
BITBANK5            50      0       0      15        0.0%
BITSFR14             0      0       0      15        0.0%
SFR14                0      0       0      15        0.0%
BANK5               50      0       0      16        0.0%
BITSFR15             0      0       0      16        0.0%
SFR15                0      0       0      16        0.0%
BITBANK6            10      0       0      17        0.0%
BITSFR16             0      0       0      17        0.0%
SFR16                0      0       0      17        0.0%
BANK6               10      0       0      18        0.0%
BITSFR17             0      0       0      18        0.0%
SFR17                0      0       0      18        0.0%
BITSFR18             0      0       0      19        0.0%
SFR18                0      0       0      19        0.0%
DATA                 0      0       4      19        0.0%
BITSFR19             0      0       0      20        0.0%
SFR19                0      0       0      20        0.0%
BITSFR20             0      0       0      21        0.0%
SFR20                0      0       0      21        0.0%
BITSFR21             0      0       0      22        0.0%
SFR21                0      0       0      22        0.0%
BITSFR22             0      0       0      23        0.0%
SFR22                0      0       0      23        0.0%
BITSFR23             0      0       0      24        0.0%
SFR23                0      0       0      24        0.0%
BITSFR24             0      0       0      25        0.0%
SFR24                0      0       0      25        0.0%
BITSFR25             0      0       0      26        0.0%
SFR25                0      0       0      26        0.0%
BITSFR26             0      0       0      27        0.0%
SFR26                0      0       0      27        0.0%
BITSFR27             0      0       0      28        0.0%
SFR27                0      0       0      28        0.0%
BITSFR28             0      0       0      29        0.0%
SFR28                0      0       0      29        0.0%
BITSFR29             0      0       0      30        0.0%
SFR29                0      0       0      30        0.0%
BITSFR30             0      0       0      31        0.0%
SFR30                0      0       0      31        0.0%
BITSFR31             0      0       0      32        0.0%
SFR31                0      0       0      32        0.0%
BITSFR32             0      0       0      33        0.0%
SFR32                0      0       0      33        0.0%
BITSFR33             0      0       0      34        0.0%
SFR33                0      0       0      34        0.0%
BITSFR34             0      0       0      35        0.0%
SFR34                0      0       0      35        0.0%
BITSFR35             0      0       0      36        0.0%
SFR35                0      0       0      36        0.0%
BITSFR36             0      0       0      37        0.0%
SFR36                0      0       0      37        0.0%
BITSFR37             0      0       0      38        0.0%
SFR37                0      0       0      38        0.0%
BITSFR38             0      0       0      39        0.0%
SFR38                0      0       0      39        0.0%
BITSFR39             0      0       0      40        0.0%
SFR39                0      0       0      40        0.0%
BITSFR40             0      0       0      41        0.0%
SFR40                0      0       0      41        0.0%
BITSFR41             0      0       0      42        0.0%
SFR41                0      0       0      42        0.0%
BITSFR42             0      0       0      43        0.0%
SFR42                0      0       0      43        0.0%
BITSFR43             0      0       0      44        0.0%
SFR43                0      0       0      44        0.0%
BITSFR44             0      0       0      45        0.0%
SFR44                0      0       0      45        0.0%
BITSFR45             0      0       0      46        0.0%
SFR45                0      0       0      46        0.0%
BITSFR46             0      0       0      47        0.0%
SFR46                0      0       0      47        0.0%
BITSFR47             0      0       0      48        0.0%
SFR47                0      0       0      48        0.0%
BITSFR48             0      0       0      49        0.0%
SFR48                0      0       0      49        0.0%
BITSFR49             0      0       0      50        0.0%
SFR49                0      0       0      50        0.0%
BITSFR50             0      0       0      51        0.0%
SFR50                0      0       0      51        0.0%
BITSFR51             0      0       0      52        0.0%
SFR51                0      0       0      52        0.0%
BITSFR52             0      0       0      53        0.0%
SFR52                0      0       0      53        0.0%
BITSFR53             0      0       0      54        0.0%
SFR53                0      0       0      54        0.0%
BITSFR54             0      0       0      55        0.0%
SFR54                0      0       0      55        0.0%
BITSFR55             0      0       0      56        0.0%
SFR55                0      0       0      56        0.0%
BITSFR56             0      0       0      57        0.0%
SFR56                0      0       0      57        0.0%
BITSFR57             0      0       0      58        0.0%
SFR57                0      0       0      58        0.0%
BITSFR58             0      0       0      59        0.0%
SFR58                0      0       0      59        0.0%
BITSFR59             0      0       0      60        0.0%
SFR59                0      0       0      60        0.0%
BITSFR60             0      0       0      61        0.0%
SFR60                0      0       0      61        0.0%
BITSFR61             0      0       0      62        0.0%
SFR61                0      0       0      62        0.0%
BITSFR62             0      0       0      63        0.0%
SFR62                0      0       0      63        0.0%
BITSFR63             0      0       0      64        0.0%
SFR63                0      0       0      64        0.0%


Microchip Technology PIC Macro Assembler V2.40 build 20220703182018 
Symbol Table                                                                                   Fri Dec 16 16:23:09 2022

        __end_of_TMR2_SetInterruptHandler 008E                                         l9 0078  
                                      l10 0078                                        l70 0053  
                                      l46 0082                                       l108 0040  
                                     l151 008D                                       l181 0090  
                                     l175 0063                                       l178 0088  
                                     l711 0041                                       l721 004E  
                                     l713 0043                                       l723 0050  
                                     l715 0045                                       l811 002E  
                                     l741 0083                                       l717 004A  
                                     l709 007B                                       l821 0036  
                                     l813 002F                                       l743 0085  
                                     l719 004C                                       l807 0089  
                                     l823 003D                                       l815 0032  
                                     l831 0060                                       l745 0087  
                                     l817 0033                                       l809 002B  
                                     l825 0054                                       l833 0072  
                                     l819 0035                                       l747 008E  
                                     l827 005A                                       l829 005D  
                                     _PR2 028D                           _TMR2_Initialize 002B  
                                    _LATA 0018                                      _T2PR 028D  
                                    i1l31 0013                                      i1l36 0023  
                                    i1l37 0023                                      i1l73 0092  
                                    _TMR2 028C                                      _WPUA 1F39  
                                    u1_20 006C                                      u1_21 006B  
                                    u2_20 000B                                      u2_21 000A  
                                    u3_20 000F                                      u3_21 000E  
                                    u4_20 0017                                      u4_21 0016  
                                    u5_20 001B                                      u5_21 001A  
                                    u6_20 001F                                      u6_21 001E  
                                    _main 0072                                      btemp 007E  
                                    start 0025             __end_of_OSCILLATOR_Initialize 0089  
                                   ?_main 0072                                     _T2CON 028E  
                                   _T2HLT 028F                                     _T2TMR 028C  
                                   i1l154 0091                                     _T2RST 0291  
                                   i1l148 0071                                     i1l761 006C  
                                   i1l757 0064                                     i1l781 000F  
                                   i1l759 0066                                     i1l783 0017  
                                   i1l785 001B                                     i1l777 0006  
                                   i1l787 001F                                     i1l779 000B  
                                   _OSCEN 0891                                     _TRISA 0012  
                        __end_of_TMR2_ISR 0072                   __end_of_PIN_MANAGER_IOC 0093  
                          _WDT_Initialize 008E                   __end_of_PWM3_Initialize 0083  
                                   pclath 000A                                     status 0003  
                                   wtemp0 007E                           __initialization 0027  
                            __end_of_main 007B                   __end_of_TMR2_Initialize 0041  
             ?_INTERRUPT_InterruptManager 0072                  _TMR2_SetInterruptHandler 0089  
                                  ??_main 0074                    __end_of_WDT_Initialize 0091  
                                  _ANSELA 1F38                                    _RA4PPS 1F14  
                                  _ODCONA 1F3A                                    _INLVLA 1F3C  
                                  _OSCFRQ 0893                                    _WDTCON 080C  
                         ?_WDT_Initialize 0072  TMR2_SetInterruptHandler@InterruptHandler 0072  
                        ?_PIN_MANAGER_IOC 0072                          ?_PWM3_Initialize 0072  
                       _SYSTEM_Initialize 0054                   __end_of__initialization 0027  
                      ?_SYSTEM_Initialize 0072                            __pcstackCOMMON 0072  
                     ??_SYSTEM_Initialize 0074                                 ?_TMR2_ISR 0072  
                        ?_TMR2_Initialize 0072                 __end_of_SYSTEM_Initialize 0064  
                              __pnvCOMMON 0070                                __pmaintext 0072  
                              ??_TMR2_ISR 0072                                __pintentry 0004  
                                 _OSCTUNE 0892                                   _PWM3DCH 0315  
                                 _PWM3DCL 0314                                   _PWM3CON 0316  
                                 _SLRCONA 1F3B                ??_TMR2_SetInterruptHandler 0074  
                                 __ptext1 0054                                   __ptext2 008E  
                                 __ptext3 002B                                   __ptext4 0089  
                                 __ptext5 007B                                   __ptext6 0041  
                                 __ptext7 0083                                   __ptext9 0064  
                   _OSCILLATOR_Initialize 0083                                 _T2CONbits 028E  
                ??_PIN_MANAGER_Initialize 0072                                 _T2HLTbits 028F  
                    end_of_initialization 0027                                 _T2RSTbits 0291  
                        ??_WDT_Initialize 0072      __end_of_TMR2_DefaultInterruptHandler 0092  
            _TMR2_DefaultInterruptHandler 0091                    ?_OSCILLATOR_Initialize 0072  
                     start_initialization 0027             ?_TMR2_DefaultInterruptHandler 0072  
                               ___latbits 0001                    _PIN_MANAGER_Initialize 0041  
            ??_INTERRUPT_InterruptManager 0072                                  _T2CLKCON 0290  
                                _PIE0bits 0716                                  _PIE1bits 0717  
                                _PIR0bits 070C                                  _PIR1bits 070D  
                                _TMR2_ISR 0064                         ??_PIN_MANAGER_IOC 0072  
                       ??_PWM3_Initialize 0072            ??_TMR2_DefaultInterruptHandler 0072  
               ?_TMR2_SetInterruptHandler 0072                         ??_TMR2_Initialize 0074  
                 ??_OSCILLATOR_Initialize 0072                                  __ptext10 0091  
                                __ptext11 0092                                  int$flags 007E  
      __end_of_INTERRUPT_InterruptManager 0025                _INTERRUPT_InterruptManager 0004  
                              _INTCONbits 000B                                  intlevel1 0000  
                 ?_PIN_MANAGER_Initialize 0072            __end_of_PIN_MANAGER_Initialize 0054  
                         _PIN_MANAGER_IOC 0092                     _TMR2_InterruptHandler 0070  
                         _PWM3_Initialize 007B  
